ARM GAS  C:\Users\VIDIIA~1\AppData\Local\Temp\ccvrPxlq.s 			page 1


   1              		.cpu cortex-m7
   2              		.eabi_attribute 28, 1
   3              		.eabi_attribute 20, 1
   4              		.eabi_attribute 21, 1
   5              		.eabi_attribute 23, 3
   6              		.eabi_attribute 24, 1
   7              		.eabi_attribute 25, 1
   8              		.eabi_attribute 26, 1
   9              		.eabi_attribute 30, 2
  10              		.eabi_attribute 34, 1
  11              		.eabi_attribute 18, 4
  12              		.file	"main.cpp"
  13              		.text
  14              		.section	.text._ZN5daisy9ParameterD2Ev,"axG",%progbits,_ZN5daisy9ParameterD5Ev,comdat
  15              		.align	1
  16              		.p2align 2,,3
  17              		.weak	_ZN5daisy9ParameterD2Ev
  18              		.arch armv7e-m
  19              		.syntax unified
  20              		.thumb
  21              		.thumb_func
  22              		.fpu fpv5-d16
  24              	_ZN5daisy9ParameterD2Ev:
  25              		@ args = 0, pretend = 0, frame = 0
  26              		@ frame_needed = 0, uses_anonymous_args = 0
  27              		@ link register save eliminated.
  28 0000 7047     		bx	lr
  30              		.weak	_ZN5daisy9ParameterD1Ev
  31              		.thumb_set _ZN5daisy9ParameterD1Ev,_ZN5daisy9ParameterD2Ev
  32 0002 00BF     		.section	.text._ZN5daisy8DaisyPodD2Ev,"axG",%progbits,_ZN5daisy8DaisyPodD5Ev,comdat
  33              		.align	1
  34              		.p2align 2,,3
  35              		.weak	_ZN5daisy8DaisyPodD2Ev
  36              		.syntax unified
  37              		.thumb
  38              		.thumb_func
  39              		.fpu fpv5-d16
  41              	_ZN5daisy8DaisyPodD2Ev:
  42              		@ args = 0, pretend = 0, frame = 0
  43              		@ frame_needed = 0, uses_anonymous_args = 0
  44              		@ link register save eliminated.
  45 0000 7047     		bx	lr
  47              		.weak	_ZN5daisy8DaisyPodD1Ev
  48              		.thumb_set _ZN5daisy8DaisyPodD1Ev,_ZN5daisy8DaisyPodD2Ev
  49 0002 00BF     		.section	.text.__tcf_0,"ax",%progbits
  50              		.align	1
  51              		.p2align 2,,3
  52              		.syntax unified
  53              		.thumb
  54              		.thumb_func
  55              		.fpu fpv5-d16
  57              	__tcf_0:
  58              		@ args = 0, pretend = 0, frame = 0
  59              		@ frame_needed = 0, uses_anonymous_args = 0
  60              		@ link register save eliminated.
  61 0000 7047     		bx	lr
  63 0002 00BF     		.section	.text._ZL8callbackPfS_j,"ax",%progbits
ARM GAS  C:\Users\VIDIIA~1\AppData\Local\Temp\ccvrPxlq.s 			page 2


  64              		.align	1
  65              		.p2align 2,,3
  66              		.syntax unified
  67              		.thumb
  68              		.thumb_func
  69              		.fpu fpv5-d16
  71              	_ZL8callbackPfS_j:
  72              		@ args = 0, pretend = 0, frame = 16
  73              		@ frame_needed = 0, uses_anonymous_args = 0
  74 0000 70B5     		push	{r4, r5, r6, lr}
  75 0002 234C     		ldr	r4, .L16
  76 0004 84B0     		sub	sp, sp, #16
  77 0006 234E     		ldr	r6, .L16+4
  78 0008 04F16C00 		add	r0, r4, #108
  79 000c FFF7FEFF 		bl	_ZN5daisy7Encoder8DebounceEv
  80 0010 D4F88830 		ldr	r3, [r4, #136]
  81 0014 002B     		cmp	r3, #0
  82 0016 32DD     		ble	.L6
  83 0018 3378     		ldrb	r3, [r6]	@ zero_extendqisi2
  84 001a 0133     		adds	r3, r3, #1
  85 001c DBB2     		uxtb	r3, r3
  86 001e 042B     		cmp	r3, #4
  87 0020 2AD8     		bhi	.L7
  88              	.L15:
  89 0022 3370     		strb	r3, [r6]
  90              	.L8:
  91 0024 94F87130 		ldrb	r3, [r4, #113]	@ zero_extendqisi2
  92 0028 7F2B     		cmp	r3, #127
  93 002a 01D1     		bne	.L11
  94 002c 0423     		movs	r3, #4
  95 002e 3370     		strb	r3, [r6]
  96              	.L11:
  97 0030 1748     		ldr	r0, .L16
  98 0032 01AC     		add	r4, sp, #4
  99 0034 FFF7FEFF 		bl	_ZN5daisy8DaisyPod9ClearLedsEv
 100 0038 3378     		ldrb	r3, [r6]	@ zero_extendqisi2
 101 003a 174D     		ldr	r5, .L16+8
 102 003c 03EB4303 		add	r3, r3, r3, lsl #1
 103 0040 05EB8303 		add	r3, r5, r3, lsl #2
 104 0044 93E80700 		ldm	r3, {r0, r1, r2}
 105 0048 84E80700 		stm	r4, {r0, r1, r2}
 106 004c 2146     		mov	r1, r4
 107 004e 1348     		ldr	r0, .L16+12
 108 0050 FFF7FEFF 		bl	_ZN5daisy6RgbLed8SetColorENS_5ColorE
 109 0054 3378     		ldrb	r3, [r6]	@ zero_extendqisi2
 110 0056 03EB4303 		add	r3, r3, r3, lsl #1
 111 005a 05EB8303 		add	r3, r5, r3, lsl #2
 112 005e 93E80700 		ldm	r3, {r0, r1, r2}
 113 0062 84E80700 		stm	r4, {r0, r1, r2}
 114 0066 2146     		mov	r1, r4
 115 0068 0D48     		ldr	r0, .L16+16
 116 006a FFF7FEFF 		bl	_ZN5daisy6RgbLed8SetColorENS_5ColorE
 117 006e 0848     		ldr	r0, .L16
 118 0070 FFF7FEFF 		bl	_ZN5daisy8DaisyPod10UpdateLedsEv
 119 0074 04B0     		add	sp, sp, #16
 120              		@ sp needed
 121 0076 70BD     		pop	{r4, r5, r6, pc}
ARM GAS  C:\Users\VIDIIA~1\AppData\Local\Temp\ccvrPxlq.s 			page 3


 122              	.L7:
 123 0078 0023     		movs	r3, #0
 124 007a 3370     		strb	r3, [r6]
 125 007c D2E7     		b	.L8
 126              	.L6:
 127 007e D1D0     		beq	.L8
 128 0080 3378     		ldrb	r3, [r6]	@ zero_extendqisi2
 129 0082 13B9     		cbnz	r3, .L10
 130 0084 0423     		movs	r3, #4
 131 0086 3370     		strb	r3, [r6]
 132 0088 CCE7     		b	.L8
 133              	.L10:
 134 008a 013B     		subs	r3, r3, #1
 135 008c C9E7     		b	.L15
 136              	.L17:
 137 008e 00BF     		.align	2
 138              	.L16:
 139 0090 00000000 		.word	.LANCHOR0
 140 0094 00000000 		.word	.LANCHOR1
 141 0098 00000000 		.word	.LANCHOR2
 142 009c F4000000 		.word	.LANCHOR0+244
 143 00a0 48010000 		.word	.LANCHOR0+328
 145              		.section	.text.startup.main,"ax",%progbits
 146              		.align	1
 147              		.p2align 2,,3
 148              		.global	main
 149              		.syntax unified
 150              		.thumb
 151              		.thumb_func
 152              		.fpu fpv5-d16
 154              	main:
 155              		@ Volatile: function does not return.
 156              		@ args = 0, pretend = 0, frame = 32
 157              		@ frame_needed = 0, uses_anonymous_args = 0
 158 0000 DFF81491 		ldr	r9, .L21+52
 159 0004 4FF0000A 		mov	r10, #0
 160 0008 364E     		ldr	r6, .L21
 161 000a A9F18C00 		sub	r0, r9, #140
 162 000e 364D     		ldr	r5, .L21+4
 163 0010 80B5     		push	{r7, lr}
 164 0012 88B0     		sub	sp, sp, #32
 165 0014 FFF7FEFF 		bl	_ZN5daisy8DaisyPod4InitEv
 166 0018 F7EE000A 		vmov.f32	s1, #1.0e+0
 167 001c 0DF10408 		add	r8, sp, #4
 168 0020 01AC     		add	r4, sp, #4
 169 0022 9FED320A 		vldr.32	s0, .L21+8
 170 0026 86F800A0 		strb	r10, [r6]
 171 002a B9E80F00 		ldmia	r9!, {r0, r1, r2, r3}
 172 002e A8E80F00 		stmia	r8!, {r0, r1, r2, r3}
 173 0032 99E80700 		ldm	r9, {r0, r1, r2}
 174 0036 09F10C07 		add	r7, r9, #12
 175 003a 88E80700 		stm	r8, {r0, r1, r2}
 176 003e 5246     		mov	r2, r10
 177 0040 2146     		mov	r1, r4
 178 0042 2B48     		ldr	r0, .L21+12
 179 0044 FFF7FEFF 		bl	_ZN5daisy9Parameter4InitENS_13AnalogControlEffNS0_5CurveE
 180 0048 A446     		mov	ip, r4
ARM GAS  C:\Users\VIDIIA~1\AppData\Local\Temp\ccvrPxlq.s 			page 4


 181 004a F7EE000A 		vmov.f32	s1, #1.0e+0
 182 004e 9FED270A 		vldr.32	s0, .L21+8
 183 0052 0FCF     		ldmia	r7!, {r0, r1, r2, r3}
 184 0054 ACE80F00 		stmia	ip!, {r0, r1, r2, r3}
 185 0058 97E80700 		ldm	r7, {r0, r1, r2}
 186 005c 88E80700 		stm	r8, {r0, r1, r2}
 187 0060 2146     		mov	r1, r4
 188 0062 2448     		ldr	r0, .L21+16
 189 0064 5246     		mov	r2, r10
 190 0066 244F     		ldr	r7, .L21+20
 191 0068 FFF7FEFF 		bl	_ZN5daisy9Parameter4InitENS_13AnalogControlEffNS0_5CurveE
 192 006c A9F19C00 		sub	r0, r9, #156
 193 0070 2249     		ldr	r1, .L21+24
 194 0072 FFF7FEFF 		bl	_ZN5daisy8DaisyPod10StartAudioEPFvPfS1_jE
 195              	.L19:
 196 0076 1E48     		ldr	r0, .L21+12
 197 0078 FFF7FEFF 		bl	_ZN5daisy9Parameter7ProcessEv
 198 007c 9FED208A 		vldr.32	s16, .L21+28
 199 0080 F0EE407A 		vmov.f32	s15, s0
 200 0084 9FED191A 		vldr.32	s2, .L21+8
 201 0088 38EE400A 		vsub.f32	s0, s16, s0
 202 008c 1A48     		ldr	r0, .L21+20
 203 008e F0EE410A 		vmov.f32	s1, s2
 204 0092 C5ED007A 		vstr.32	s15, [r5]
 205 0096 FFF7FEFF 		bl	_ZN5daisy5Color4InitEfff
 206 009a 9FED141A 		vldr.32	s2, .L21+8
 207 009e D5ED000A 		vldr.32	s1, [r5]
 208 00a2 B0EE410A 		vmov.f32	s0, s2
 209 00a6 1748     		ldr	r0, .L21+32
 210 00a8 78EE600A 		vsub.f32	s1, s16, s1
 211 00ac FFF7FEFF 		bl	_ZN5daisy5Color4InitEfff
 212 00b0 0221     		movs	r1, #2
 213 00b2 1548     		ldr	r0, .L21+36
 214 00b4 FFF7FEFF 		bl	_ZN5daisy5Color4InitENS0_11PresetColorE
 215 00b8 0321     		movs	r1, #3
 216 00ba 1448     		ldr	r0, .L21+40
 217 00bc FFF7FEFF 		bl	_ZN5daisy5Color4InitENS0_11PresetColorE
 218 00c0 0721     		movs	r1, #7
 219 00c2 1348     		ldr	r0, .L21+44
 220 00c4 FFF7FEFF 		bl	_ZN5daisy5Color4InitENS0_11PresetColorE
 221 00c8 3378     		ldrb	r3, [r6]	@ zero_extendqisi2
 222 00ca 03EB4303 		add	r3, r3, r3, lsl #1
 223 00ce 07EB8303 		add	r3, r7, r3, lsl #2
 224 00d2 93E80700 		ldm	r3, {r0, r1, r2}
 225 00d6 84E80700 		stm	r4, {r0, r1, r2}
 226 00da 2146     		mov	r1, r4
 227 00dc 0D48     		ldr	r0, .L21+48
 228 00de FFF7FEFF 		bl	_ZN5daisy6RgbLed8SetColorENS_5ColorE
 229 00e2 C8E7     		b	.L19
 230              	.L22:
 231              		.align	2
 232              	.L21:
 233 00e4 00000000 		.word	.LANCHOR1
 234 00e8 00000000 		.word	.LANCHOR5
 235 00ec 00000000 		.word	0
 236 00f0 00000000 		.word	.LANCHOR3
 237 00f4 00000000 		.word	.LANCHOR4
ARM GAS  C:\Users\VIDIIA~1\AppData\Local\Temp\ccvrPxlq.s 			page 5


 238 00f8 00000000 		.word	.LANCHOR2
 239 00fc 00000000 		.word	_ZL8callbackPfS_j
 240 0100 00007F43 		.word	1132396544
 241 0104 0C000000 		.word	.LANCHOR2+12
 242 0108 18000000 		.word	.LANCHOR2+24
 243 010c 24000000 		.word	.LANCHOR2+36
 244 0110 30000000 		.word	.LANCHOR2+48
 245 0114 F4000000 		.word	.LANCHOR0+244
 246 0118 8C000000 		.word	.LANCHOR0+140
 248              		.section	.text.startup._GLOBAL__sub_I_set_colors,"ax",%progbits
 249              		.align	1
 250              		.p2align 2,,3
 251              		.syntax unified
 252              		.thumb
 253              		.thumb_func
 254              		.fpu fpv5-d16
 256              	_GLOBAL__sub_I_set_colors:
 257              		@ args = 0, pretend = 0, frame = 0
 258              		@ frame_needed = 0, uses_anonymous_args = 0
 259 0000 10B5     		push	{r4, lr}
 260 0002 0B4A     		ldr	r2, .L25
 261 0004 0B4C     		ldr	r4, .L25+4
 262 0006 0C49     		ldr	r1, .L25+8
 263 0008 0C48     		ldr	r0, .L25+12
 264 000a FFF7FEFF 		bl	__aeabi_atexit
 265 000e 084A     		ldr	r2, .L25
 266 0010 0B49     		ldr	r1, .L25+16
 267 0012 0020     		movs	r0, #0
 268 0014 FFF7FEFF 		bl	__aeabi_atexit
 269 0018 2146     		mov	r1, r4
 270 001a 054A     		ldr	r2, .L25
 271 001c 0948     		ldr	r0, .L25+20
 272 001e FFF7FEFF 		bl	__aeabi_atexit
 273 0022 2146     		mov	r1, r4
 274 0024 024A     		ldr	r2, .L25
 275 0026 0848     		ldr	r0, .L25+24
 276 0028 BDE81040 		pop	{r4, lr}
 277 002c FFF7FEBF 		b	__aeabi_atexit
 278              	.L26:
 279              		.align	2
 280              	.L25:
 281 0030 00000000 		.word	__dso_handle
 282 0034 00000000 		.word	_ZN5daisy9ParameterD1Ev
 283 0038 00000000 		.word	_ZN5daisy8DaisyPodD1Ev
 284 003c 00000000 		.word	.LANCHOR0
 285 0040 00000000 		.word	__tcf_0
 286 0044 00000000 		.word	.LANCHOR3
 287 0048 00000000 		.word	.LANCHOR4
 289              		.section	.init_array,"aw",%init_array
 290              		.align	2
 291 0000 00000000 		.word	_GLOBAL__sub_I_set_colors(target1)
 292              		.global	knob1val
 293              		.global	p_knob2
 294              		.global	p_knob1
 295              		.global	set_colors
 296              		.section	.bss._ZL3pod,"aw",%nobits
 297              		.align	2
ARM GAS  C:\Users\VIDIIA~1\AppData\Local\Temp\ccvrPxlq.s 			page 6


 298              		.set	.LANCHOR0,. + 0
 301              	_ZL3pod:
 302 0000 00000000 		.space	424
 302      00000000 
 302      00000000 
 302      00000000 
 302      00000000 
 303              		.section	.bss._ZL7led_sel,"aw",%nobits
 304              		.set	.LANCHOR1,. + 0
 307              	_ZL7led_sel:
 308 0000 00       		.space	1
 309              		.section	.bss.knob1val,"aw",%nobits
 310              		.align	2
 311              		.set	.LANCHOR5,. + 0
 314              	knob1val:
 315 0000 00000000 		.space	4
 316              		.section	.bss.p_knob1,"aw",%nobits
 317              		.align	2
 318              		.set	.LANCHOR3,. + 0
 321              	p_knob1:
 322 0000 00000000 		.space	52
 322      00000000 
 322      00000000 
 322      00000000 
 322      00000000 
 323              		.section	.bss.p_knob2,"aw",%nobits
 324              		.align	2
 325              		.set	.LANCHOR4,. + 0
 328              	p_knob2:
 329 0000 00000000 		.space	52
 329      00000000 
 329      00000000 
 329      00000000 
 329      00000000 
 330              		.section	.bss.set_colors,"aw",%nobits
 331              		.align	2
 332              		.set	.LANCHOR2,. + 0
 335              	set_colors:
 336 0000 00000000 		.space	60
 336      00000000 
 336      00000000 
 336      00000000 
 336      00000000 
 337              		.hidden	__dso_handle
 338              		.ident	"GCC: (GNU Arm Embedded Toolchain 9-2020-q2-update) 9.3.1 20200408 (release)"
ARM GAS  C:\Users\VIDIIA~1\AppData\Local\Temp\ccvrPxlq.s 			page 7

