ARM GAS  C:\Users\geoff\AppData\Local\Temp\cclLPcjd.s 			page 1


   1              		.cpu cortex-m7
   2              		.eabi_attribute 28, 1
   3              		.eabi_attribute 20, 1
   4              		.eabi_attribute 21, 1
   5              		.eabi_attribute 23, 3
   6              		.eabi_attribute 24, 1
   7              		.eabi_attribute 25, 1
   8              		.eabi_attribute 26, 1
   9              		.eabi_attribute 30, 2
  10              		.eabi_attribute 34, 1
  11              		.eabi_attribute 18, 4
  12              		.file	"daisyTest2.cpp"
  13              		.text
  14              		.section	.text._ZN5daisy9ParameterD2Ev,"axG",%progbits,_ZN5daisy9ParameterD5Ev,comdat
  15              		.align	1
  16              		.p2align 2,,3
  17              		.weak	_ZN5daisy9ParameterD2Ev
  18              		.arch armv7e-m
  19              		.syntax unified
  20              		.thumb
  21              		.thumb_func
  22              		.fpu fpv5-d16
  24              	_ZN5daisy9ParameterD2Ev:
  25              		@ args = 0, pretend = 0, frame = 0
  26              		@ frame_needed = 0, uses_anonymous_args = 0
  27              		@ link register save eliminated.
  28 0000 7047     		bx	lr
  30              		.weak	_ZN5daisy9ParameterD1Ev
  31              		.thumb_set _ZN5daisy9ParameterD1Ev,_ZN5daisy9ParameterD2Ev
  32 0002 00BF     		.section	.text._ZN5daisy8DaisyPodD2Ev,"axG",%progbits,_ZN5daisy8DaisyPodD5Ev,comdat
  33              		.align	1
  34              		.p2align 2,,3
  35              		.weak	_ZN5daisy8DaisyPodD2Ev
  36              		.syntax unified
  37              		.thumb
  38              		.thumb_func
  39              		.fpu fpv5-d16
  41              	_ZN5daisy8DaisyPodD2Ev:
  42              		@ args = 0, pretend = 0, frame = 0
  43              		@ frame_needed = 0, uses_anonymous_args = 0
  44              		@ link register save eliminated.
  45 0000 7047     		bx	lr
  47              		.weak	_ZN5daisy8DaisyPodD1Ev
  48              		.thumb_set _ZN5daisy8DaisyPodD1Ev,_ZN5daisy8DaisyPodD2Ev
  49 0002 00BF     		.section	.text.startup.main,"ax",%progbits
  50              		.align	1
  51              		.p2align 2,,3
  52              		.global	main
  53              		.syntax unified
  54              		.thumb
  55              		.thumb_func
  56              		.fpu fpv5-d16
  58              	main:
  59              		@ args = 0, pretend = 0, frame = 32
  60              		@ frame_needed = 0, uses_anonymous_args = 0
  61 0000 F0B5     		push	{r4, r5, r6, r7, lr}
  62 0002 274D     		ldr	r5, .L7
ARM GAS  C:\Users\geoff\AppData\Local\Temp\cclLPcjd.s 			page 2


  63 0004 2DED028B 		vpush.64	{d8}
  64 0008 89B0     		sub	sp, sp, #36
  65 000a A5F18C00 		sub	r0, r5, #140
  66 000e FFF7FEFF 		bl	_ZN5daisy8DaisyPod4InitEv
  67 0012 F7EE000A 		vmov.f32	s1, #1.0e+0
  68 0016 01AC     		add	r4, sp, #4
  69 0018 9FED220A 		vldr.32	s0, .L7+4
  70 001c 01AF     		add	r7, sp, #4
  71 001e 0FCD     		ldmia	r5!, {r0, r1, r2, r3}
  72 0020 0FC4     		stmia	r4!, {r0, r1, r2, r3}
  73 0022 95E80700 		ldm	r5, {r0, r1, r2}
  74 0026 05F10C06 		add	r6, r5, #12
  75 002a 84E80700 		stm	r4, {r0, r1, r2}
  76 002e 01A9     		add	r1, sp, #4
  77 0030 0022     		movs	r2, #0
  78 0032 1D48     		ldr	r0, .L7+8
  79 0034 FFF7FEFF 		bl	_ZN5daisy9Parameter4InitENS_13AnalogControlEffNS0_5CurveE
  80 0038 F7EE000A 		vmov.f32	s1, #1.0e+0
  81 003c 9FED190A 		vldr.32	s0, .L7+4
  82 0040 0FCE     		ldmia	r6!, {r0, r1, r2, r3}
  83 0042 0FC7     		stmia	r7!, {r0, r1, r2, r3}
  84 0044 96E80700 		ldm	r6, {r0, r1, r2}
  85 0048 84E80700 		stm	r4, {r0, r1, r2}
  86 004c 1748     		ldr	r0, .L7+12
  87 004e 01A9     		add	r1, sp, #4
  88 0050 0022     		movs	r2, #0
  89 0052 FFF7FEFF 		bl	_ZN5daisy9Parameter4InitENS_13AnalogControlEffNS0_5CurveE
  90 0056 A5F19C00 		sub	r0, r5, #156
  91 005a FFF7FEFF 		bl	_ZN5daisy8DaisyPod8StartAdcEv
  92              	.L5:
  93 005e 1248     		ldr	r0, .L7+8
  94 0060 FFF7FEFF 		bl	_ZN5daisy9Parameter7ProcessEv
  95 0064 1148     		ldr	r0, .L7+12
  96 0066 B0EE408A 		vmov.f32	s16, s0
  97 006a FFF7FEFF 		bl	_ZN5daisy9Parameter7ProcessEv
  98 006e F0EE408A 		vmov.f32	s17, s0
  99 0072 9FED0C1A 		vldr.32	s2, .L7+4
 100 0076 0E48     		ldr	r0, .L7+16
 101 0078 B0EE480A 		vmov.f32	s0, s16
 102 007c F0EE680A 		vmov.f32	s1, s17
 103 0080 FFF7FEFF 		bl	_ZN5daisy6RgbLed3SetEfff
 104 0084 B0EE681A 		vmov.f32	s2, s17
 105 0088 F0EE480A 		vmov.f32	s1, s16
 106 008c 9FED050A 		vldr.32	s0, .L7+4
 107 0090 0848     		ldr	r0, .L7+20
 108 0092 FFF7FEFF 		bl	_ZN5daisy6RgbLed3SetEfff
 109 0096 0848     		ldr	r0, .L7+24
 110 0098 FFF7FEFF 		bl	_ZN5daisy8DaisyPod10UpdateLedsEv
 111 009c DFE7     		b	.L5
 112              	.L8:
 113 009e 00BF     		.align	2
 114              	.L7:
 115 00a0 8C000000 		.word	.LANCHOR0+140
 116 00a4 00000000 		.word	0
 117 00a8 00000000 		.word	.LANCHOR1
 118 00ac 00000000 		.word	.LANCHOR2
 119 00b0 F4000000 		.word	.LANCHOR0+244
ARM GAS  C:\Users\geoff\AppData\Local\Temp\cclLPcjd.s 			page 3


 120 00b4 48010000 		.word	.LANCHOR0+328
 121 00b8 00000000 		.word	.LANCHOR0
 123              		.section	.text.startup._GLOBAL__sub_I_hw,"ax",%progbits
 124              		.align	1
 125              		.p2align 2,,3
 126              		.syntax unified
 127              		.thumb
 128              		.thumb_func
 129              		.fpu fpv5-d16
 131              	_GLOBAL__sub_I_hw:
 132              		@ args = 0, pretend = 0, frame = 0
 133              		@ frame_needed = 0, uses_anonymous_args = 0
 134 0000 10B5     		push	{r4, lr}
 135 0002 094C     		ldr	r4, .L11
 136 0004 094A     		ldr	r2, .L11+4
 137 0006 0A49     		ldr	r1, .L11+8
 138 0008 0A48     		ldr	r0, .L11+12
 139 000a FFF7FEFF 		bl	__aeabi_atexit
 140 000e 2146     		mov	r1, r4
 141 0010 064A     		ldr	r2, .L11+4
 142 0012 0948     		ldr	r0, .L11+16
 143 0014 FFF7FEFF 		bl	__aeabi_atexit
 144 0018 2146     		mov	r1, r4
 145 001a 044A     		ldr	r2, .L11+4
 146 001c 0748     		ldr	r0, .L11+20
 147 001e BDE81040 		pop	{r4, lr}
 148 0022 FFF7FEBF 		b	__aeabi_atexit
 149              	.L12:
 150 0026 00BF     		.align	2
 151              	.L11:
 152 0028 00000000 		.word	_ZN5daisy9ParameterD1Ev
 153 002c 00000000 		.word	__dso_handle
 154 0030 00000000 		.word	_ZN5daisy8DaisyPodD1Ev
 155 0034 00000000 		.word	.LANCHOR0
 156 0038 00000000 		.word	.LANCHOR1
 157 003c 00000000 		.word	.LANCHOR2
 159              		.section	.init_array,"aw",%init_array
 160              		.align	2
 161 0000 00000000 		.word	_GLOBAL__sub_I_hw(target1)
 162              		.global	p_knob2
 163              		.global	p_knob1
 164              		.global	hw
 165              		.section	.bss.hw,"aw",%nobits
 166              		.align	2
 167              		.set	.LANCHOR0,. + 0
 170              	hw:
 171 0000 00000000 		.space	424
 171      00000000 
 171      00000000 
 171      00000000 
 171      00000000 
 172              		.section	.bss.p_knob1,"aw",%nobits
 173              		.align	2
 174              		.set	.LANCHOR1,. + 0
 177              	p_knob1:
 178 0000 00000000 		.space	52
 178      00000000 
ARM GAS  C:\Users\geoff\AppData\Local\Temp\cclLPcjd.s 			page 4


 178      00000000 
 178      00000000 
 178      00000000 
 179              		.section	.bss.p_knob2,"aw",%nobits
 180              		.align	2
 181              		.set	.LANCHOR2,. + 0
 184              	p_knob2:
 185 0000 00000000 		.space	52
 185      00000000 
 185      00000000 
 185      00000000 
 185      00000000 
 186              		.hidden	__dso_handle
 187              		.ident	"GCC: (GNU Arm Embedded Toolchain 9-2020-q2-update) 9.3.1 20200408 (release)"
ARM GAS  C:\Users\geoff\AppData\Local\Temp\cclLPcjd.s 			page 5

