ARM GAS  C:\Users\geoff\AppData\Local\Temp\ccHxHRfC.s 			page 1


   1              		.cpu cortex-m7
   2              		.eabi_attribute 28, 1
   3              		.eabi_attribute 20, 1
   4              		.eabi_attribute 21, 1
   5              		.eabi_attribute 23, 3
   6              		.eabi_attribute 24, 1
   7              		.eabi_attribute 25, 1
   8              		.eabi_attribute 26, 1
   9              		.eabi_attribute 30, 2
  10              		.eabi_attribute 34, 1
  11              		.eabi_attribute 18, 4
  12              		.file	"musicSynth.cpp"
  13              		.text
  14              		.section	.text._ZN5daisy9DaisySeedD2Ev,"axG",%progbits,_ZN5daisy9DaisySeedD5Ev,comdat
  15              		.align	1
  16              		.p2align 2,,3
  17              		.weak	_ZN5daisy9DaisySeedD2Ev
  18              		.arch armv7e-m
  19              		.syntax unified
  20              		.thumb
  21              		.thumb_func
  22              		.fpu fpv5-d16
  24              	_ZN5daisy9DaisySeedD2Ev:
  25              		@ args = 0, pretend = 0, frame = 0
  26              		@ frame_needed = 0, uses_anonymous_args = 0
  27              		@ link register save eliminated.
  28 0000 7047     		bx	lr
  30              		.weak	_ZN5daisy9DaisySeedD1Ev
  31              		.thumb_set _ZN5daisy9DaisySeedD1Ev,_ZN5daisy9DaisySeedD2Ev
  32 0002 00BF     		.section	.text._ZN5daisy8DaisyPodD2Ev,"axG",%progbits,_ZN5daisy8DaisyPodD5Ev,comdat
  33              		.align	1
  34              		.p2align 2,,3
  35              		.weak	_ZN5daisy8DaisyPodD2Ev
  36              		.syntax unified
  37              		.thumb
  38              		.thumb_func
  39              		.fpu fpv5-d16
  41              	_ZN5daisy8DaisyPodD2Ev:
  42              		@ args = 0, pretend = 0, frame = 0
  43              		@ frame_needed = 0, uses_anonymous_args = 0
  44              		@ link register save eliminated.
  45 0000 7047     		bx	lr
  47              		.weak	_ZN5daisy8DaisyPodD1Ev
  48              		.thumb_set _ZN5daisy8DaisyPodD1Ev,_ZN5daisy8DaisyPodD2Ev
  49 0002 00BF     		.section	.text._ZN7daisysp10OscillatorD2Ev,"axG",%progbits,_ZN7daisysp10OscillatorD5Ev,comdat
  50              		.align	1
  51              		.p2align 2,,3
  52              		.weak	_ZN7daisysp10OscillatorD2Ev
  53              		.syntax unified
  54              		.thumb
  55              		.thumb_func
  56              		.fpu fpv5-d16
  58              	_ZN7daisysp10OscillatorD2Ev:
  59              		@ args = 0, pretend = 0, frame = 0
  60              		@ frame_needed = 0, uses_anonymous_args = 0
  61              		@ link register save eliminated.
  62 0000 7047     		bx	lr
ARM GAS  C:\Users\geoff\AppData\Local\Temp\ccHxHRfC.s 			page 2


  64              		.weak	_ZN7daisysp10OscillatorD1Ev
  65              		.thumb_set _ZN7daisysp10OscillatorD1Ev,_ZN7daisysp10OscillatorD2Ev
  66 0002 00BF     		.section	.text._ZN8PrintOut11UsbCallbackEPhPm,"ax",%progbits
  67              		.align	1
  68              		.p2align 2,,3
  69              		.global	_ZN8PrintOut11UsbCallbackEPhPm
  70              		.syntax unified
  71              		.thumb
  72              		.thumb_func
  73              		.fpu fpv5-d16
  75              	_ZN8PrintOut11UsbCallbackEPhPm:
  76              		@ args = 0, pretend = 0, frame = 0
  77              		@ frame_needed = 0, uses_anonymous_args = 0
  78              		@ link register save eliminated.
  79 0000 0B68     		ldr	r3, [r1]
  80 0002 73B1     		cbz	r3, .L13
  81 0004 421E     		subs	r2, r0, #1
  82 0006 30B4     		push	{r4, r5}
  83 0008 064C     		ldr	r4, .L16
  84              	.L7:
  85 000a 1346     		mov	r3, r2
  86 000c 12F8015F 		ldrb	r5, [r2, #1]!	@ zero_extendqisi2
  87 0010 0233     		adds	r3, r3, #2
  88 0012 04F8015B 		strb	r5, [r4], #1
  89 0016 0D68     		ldr	r5, [r1]
  90 0018 1B1A     		subs	r3, r3, r0
  91 001a 9D42     		cmp	r5, r3
  92 001c F5D8     		bhi	.L7
  93 001e 30BC     		pop	{r4, r5}
  94 0020 7047     		bx	lr
  95              	.L13:
  96 0022 7047     		bx	lr
  97              	.L17:
  98              		.align	2
  99              	.L16:
 100 0024 00000000 		.word	.LANCHOR0
 102              		.section	.text._ZN8PrintOut7PrinterD2Ev,"axG",%progbits,_ZN8PrintOut7PrinterD5Ev,comdat
 103              		.align	1
 104              		.p2align 2,,3
 105              		.weak	_ZN8PrintOut7PrinterD2Ev
 106              		.syntax unified
 107              		.thumb
 108              		.thumb_func
 109              		.fpu fpv5-d16
 111              	_ZN8PrintOut7PrinterD2Ev:
 112              		@ args = 0, pretend = 0, frame = 0
 113              		@ frame_needed = 0, uses_anonymous_args = 0
 114              		@ link register save eliminated.
 115 0000 7047     		bx	lr
 117              		.weak	_ZN8PrintOut7PrinterD1Ev
 118              		.thumb_set _ZN8PrintOut7PrinterD1Ev,_ZN8PrintOut7PrinterD2Ev
 119 0002 00BF     		.section	.text._ZN8PrintOut7Printer3outEPKcz,"axG",%progbits,_ZN8PrintOut7Printer3outEPKcz,comdat
 120              		.align	1
 121              		.p2align 2,,3
 122              		.weak	_ZN8PrintOut7Printer3outEPKcz
 123              		.syntax unified
 124              		.thumb
ARM GAS  C:\Users\geoff\AppData\Local\Temp\ccHxHRfC.s 			page 3


 125              		.thumb_func
 126              		.fpu fpv5-d16
 128              	_ZN8PrintOut7Printer3outEPKcz:
 129              		@ args = 4, pretend = 12, frame = 8
 130              		@ frame_needed = 0, uses_anonymous_args = 1
 131 0000 0EB4     		push	{r1, r2, r3}
 132 0002 F0B5     		push	{r4, r5, r6, r7, lr}
 133 0004 82B0     		sub	sp, sp, #8
 134 0006 00F16B05 		add	r5, r0, #107
 135 000a 0446     		mov	r4, r0
 136 000c 4FF40072 		mov	r2, #512
 137 0010 07AE     		add	r6, sp, #28
 138 0012 0021     		movs	r1, #0
 139 0014 2846     		mov	r0, r5
 140 0016 56F8047B 		ldr	r7, [r6], #4
 141 001a FFF7FEFF 		bl	memset
 142 001e 2846     		mov	r0, r5
 143 0020 3946     		mov	r1, r7
 144 0022 3246     		mov	r2, r6
 145 0024 0196     		str	r6, [sp, #4]
 146 0026 FFF7FEFF 		bl	vsprintf
 147 002a 2846     		mov	r0, r5
 148 002c FFF7FEFF 		bl	strlen
 149 0030 2946     		mov	r1, r5
 150 0032 0246     		mov	r2, r0
 151 0034 04F2CE20 		addw	r0, r4, #718
 152 0038 FFF7FEFF 		bl	_ZN5daisy9UsbHandle16TransmitInternalEPhj
 153 003c 02B0     		add	sp, sp, #8
 154              		@ sp needed
 155 003e BDE8F040 		pop	{r4, r5, r6, r7, lr}
 156 0042 03B0     		add	sp, sp, #12
 157 0044 7047     		bx	lr
 159 0046 00BF     		.section	.text._Z5setupv,"ax",%progbits
 160              		.align	1
 161              		.p2align 2,,3
 162              		.global	_Z5setupv
 163              		.syntax unified
 164              		.thumb
 165              		.thumb_func
 166              		.fpu fpv5-d16
 168              	_Z5setupv:
 169              		@ args = 0, pretend = 0, frame = 0
 170              		@ frame_needed = 0, uses_anonymous_args = 0
 171 0000 0B48     		ldr	r0, .L23
 172 0002 10B5     		push	{r4, lr}
 173 0004 00F16204 		add	r4, r0, #98
 174 0008 FFF7FEFF 		bl	_ZN5daisy9DaisySeed9ConfigureEv
 175 000c 0948     		ldr	r0, .L23+4
 176 000e FFF7FEFF 		bl	_ZN5daisy8DaisyPod4InitEv
 177 0012 FFF7FEFF 		bl	dsy_tim_init
 178 0016 FFF7FEFF 		bl	dsy_tim_start
 179 001a 2046     		mov	r0, r4
 180 001c 0021     		movs	r1, #0
 181 001e FFF7FEFF 		bl	_ZN5daisy9UsbHandle4InitENS0_9UsbPeriphE
 182 0022 2046     		mov	r0, r4
 183 0024 0449     		ldr	r1, .L23+8
 184 0026 BDE81040 		pop	{r4, lr}
ARM GAS  C:\Users\geoff\AppData\Local\Temp\ccHxHRfC.s 			page 4


 185 002a FFF7FEBF 		b	_ZN5daisy9UsbHandle18SetReceiveCallbackEPFvPhPmE
 186              	.L24:
 187 002e 00BF     		.align	2
 188              	.L23:
 189 0030 00000000 		.word	.LANCHOR1
 190 0034 00000000 		.word	.LANCHOR2
 191 0038 00000000 		.word	_ZN8PrintOut11UsbCallbackEPhPm
 193              		.section	.rodata.main.str1.4,"aMS",%progbits,1
 194              		.align	2
 195              	.LC0:
 196 0000 436F756E 		.ascii	"Counter:   %10d \015\012\000"
 196      7465723A 
 196      20202025 
 196      31306420 
 196      0D0A00
 197 0013 00       		.align	2
 198              	.LC1:
 199 0014 54696D65 		.ascii	"TimeStamp: %10u \015\012\000"
 199      5374616D 
 199      703A2025 
 199      31307520 
 199      0D0A00
 200              		.section	.text.startup.main,"ax",%progbits
 201              		.align	1
 202              		.p2align 2,,3
 203              		.global	main
 204              		.syntax unified
 205              		.thumb
 206              		.thumb_func
 207              		.fpu fpv5-d16
 209              	main:
 210              		@ args = 0, pretend = 0, frame = 0
 211              		@ frame_needed = 0, uses_anonymous_args = 0
 212 0000 38B5     		push	{r3, r4, r5, lr}
 213 0002 0D4D     		ldr	r5, .L28
 214 0004 FFF7FEFF 		bl	_Z5setupv
 215              	.L26:
 216 0008 FFF7FEFF 		bl	dsy_tim_get_ms
 217 000c 2A68     		ldr	r2, [r5]
 218 000e 0B49     		ldr	r1, .L28+4
 219 0010 0446     		mov	r4, r0
 220 0012 531C     		adds	r3, r2, #1
 221 0014 0A48     		ldr	r0, .L28+8
 222 0016 2B60     		str	r3, [r5]
 223 0018 FFF7FEFF 		bl	_ZN8PrintOut7Printer3outEPKcz
 224 001c 0520     		movs	r0, #5
 225 001e FFF7FEFF 		bl	dsy_tim_delay_ms
 226 0022 2246     		mov	r2, r4
 227 0024 0749     		ldr	r1, .L28+12
 228 0026 0648     		ldr	r0, .L28+8
 229 0028 FFF7FEFF 		bl	_ZN8PrintOut7Printer3outEPKcz
 230 002c 40F2EF10 		movw	r0, #495
 231 0030 FFF7FEFF 		bl	dsy_tim_delay_ms
 232 0034 E8E7     		b	.L26
 233              	.L29:
 234 0036 00BF     		.align	2
 235              	.L28:
ARM GAS  C:\Users\geoff\AppData\Local\Temp\ccHxHRfC.s 			page 5


 236 0038 00000000 		.word	.LANCHOR3
 237 003c 00000000 		.word	.LC0
 238 0040 00000000 		.word	.LANCHOR4
 239 0044 14000000 		.word	.LC1
 241              		.section	.text.startup._GLOBAL__sub_I__ZN8PrintOut7sumbuffE,"ax",%progbits
 242              		.align	1
 243              		.p2align 2,,3
 244              		.syntax unified
 245              		.thumb
 246              		.thumb_func
 247              		.fpu fpv5-d16
 249              	_GLOBAL__sub_I__ZN8PrintOut7sumbuffE:
 250              		@ args = 0, pretend = 0, frame = 0
 251              		@ frame_needed = 0, uses_anonymous_args = 0
 252 0000 10B5     		push	{r4, lr}
 253 0002 0E4A     		ldr	r2, .L32
 254 0004 0E4C     		ldr	r4, .L32+4
 255 0006 0F49     		ldr	r1, .L32+8
 256 0008 0F48     		ldr	r0, .L32+12
 257 000a FFF7FEFF 		bl	__aeabi_atexit
 258 000e 0B4A     		ldr	r2, .L32
 259 0010 0E49     		ldr	r1, .L32+16
 260 0012 0F48     		ldr	r0, .L32+20
 261 0014 FFF7FEFF 		bl	__aeabi_atexit
 262 0018 2146     		mov	r1, r4
 263 001a 084A     		ldr	r2, .L32
 264 001c 0D48     		ldr	r0, .L32+24
 265 001e FFF7FEFF 		bl	__aeabi_atexit
 266 0022 2146     		mov	r1, r4
 267 0024 054A     		ldr	r2, .L32
 268 0026 0C48     		ldr	r0, .L32+28
 269 0028 FFF7FEFF 		bl	__aeabi_atexit
 270 002c 034A     		ldr	r2, .L32
 271 002e 0B49     		ldr	r1, .L32+32
 272 0030 0B48     		ldr	r0, .L32+36
 273 0032 BDE81040 		pop	{r4, lr}
 274 0036 FFF7FEBF 		b	__aeabi_atexit
 275              	.L33:
 276 003a 00BF     		.align	2
 277              	.L32:
 278 003c 00000000 		.word	__dso_handle
 279 0040 00000000 		.word	_ZN7daisysp10OscillatorD1Ev
 280 0044 00000000 		.word	_ZN5daisy9DaisySeedD1Ev
 281 0048 00000000 		.word	.LANCHOR1
 282 004c 00000000 		.word	_ZN5daisy8DaisyPodD1Ev
 283 0050 00000000 		.word	.LANCHOR2
 284 0054 00000000 		.word	.LANCHOR5
 285 0058 00000000 		.word	.LANCHOR6
 286 005c 00000000 		.word	_ZN8PrintOut7PrinterD1Ev
 287 0060 00000000 		.word	.LANCHOR4
 289              		.section	.init_array,"aw",%init_array
 290              		.align	2
 291 0000 00000000 		.word	_GLOBAL__sub_I__ZN8PrintOut7sumbuffE(target1)
 292              		.global	counter
 293              		.global	timer
 294              		.global	print
 295              		.global	osc2
ARM GAS  C:\Users\geoff\AppData\Local\Temp\ccHxHRfC.s 			page 6


 296              		.global	osc1
 297              		.global	pod
 298              		.global	seed
 299              		.global	_ZN8PrintOut7sumbuffE
 300              		.section	.bss._ZN8PrintOut7sumbuffE,"aw",%nobits
 301              		.align	2
 302              		.set	.LANCHOR0,. + 0
 305              	_ZN8PrintOut7sumbuffE:
 306 0000 00000000 		.space	1024
 306      00000000 
 306      00000000 
 306      00000000 
 306      00000000 
 307              		.section	.bss.counter,"aw",%nobits
 308              		.align	2
 309              		.set	.LANCHOR3,. + 0
 312              	counter:
 313 0000 00000000 		.space	4
 314              		.section	.bss.osc1,"aw",%nobits
 315              		.align	2
 316              		.set	.LANCHOR5,. + 0
 319              	osc1:
 320 0000 00000000 		.space	36
 320      00000000 
 320      00000000 
 320      00000000 
 320      00000000 
 321              		.section	.bss.osc2,"aw",%nobits
 322              		.align	2
 323              		.set	.LANCHOR6,. + 0
 326              	osc2:
 327 0000 00000000 		.space	36
 327      00000000 
 327      00000000 
 327      00000000 
 327      00000000 
 328              		.section	.bss.pod,"aw",%nobits
 329              		.align	2
 330              		.set	.LANCHOR2,. + 0
 333              	pod:
 334 0000 00000000 		.space	424
 334      00000000 
 334      00000000 
 334      00000000 
 334      00000000 
 335              		.section	.bss.print,"aw",%nobits
 336              		.align	2
 337              		.set	.LANCHOR4,. + 0
 340              	print:
 341 0000 00000000 		.space	728
 341      00000000 
 341      00000000 
 341      00000000 
 341      00000000 
 342              		.section	.bss.seed,"aw",%nobits
 343              		.align	2
 344              		.set	.LANCHOR1,. + 0
ARM GAS  C:\Users\geoff\AppData\Local\Temp\ccHxHRfC.s 			page 7


 347              	seed:
 348 0000 00000000 		.space	108
 348      00000000 
 348      00000000 
 348      00000000 
 348      00000000 
 349              		.section	.bss.timer,"aw",%nobits
 350              		.align	2
 353              	timer:
 354 0000 00000000 		.space	8
 354      00000000 
 355              		.hidden	__dso_handle
 356              		.ident	"GCC: (GNU Arm Embedded Toolchain 9-2020-q2-update) 9.3.1 20200408 (release)"
ARM GAS  C:\Users\geoff\AppData\Local\Temp\ccHxHRfC.s 			page 8

