ARM GAS  C:\Users\geoff\AppData\Local\Temp\cczkF2yQ.s 			page 1


   1              		.cpu cortex-m7
   2              		.eabi_attribute 28, 1
   3              		.eabi_attribute 20, 1
   4              		.eabi_attribute 21, 1
   5              		.eabi_attribute 23, 3
   6              		.eabi_attribute 24, 1
   7              		.eabi_attribute 25, 1
   8              		.eabi_attribute 26, 1
   9              		.eabi_attribute 30, 2
  10              		.eabi_attribute 34, 1
  11              		.eabi_attribute 18, 4
  12              		.file	"musicSynth.cpp"
  13              		.text
  14              		.section	.text._ZN5daisy9DaisySeedD2Ev,"axG",%progbits,_ZN5daisy9DaisySeedD5Ev,comdat
  15              		.align	1
  16              		.p2align 2,,3
  17              		.weak	_ZN5daisy9DaisySeedD2Ev
  18              		.arch armv7e-m
  19              		.syntax unified
  20              		.thumb
  21              		.thumb_func
  22              		.fpu fpv5-d16
  24              	_ZN5daisy9DaisySeedD2Ev:
  25              		@ args = 0, pretend = 0, frame = 0
  26              		@ frame_needed = 0, uses_anonymous_args = 0
  27              		@ link register save eliminated.
  28 0000 7047     		bx	lr
  30              		.weak	_ZN5daisy9DaisySeedD1Ev
  31              		.thumb_set _ZN5daisy9DaisySeedD1Ev,_ZN5daisy9DaisySeedD2Ev
  32 0002 00BF     		.section	.text._ZN5daisy8DaisyPodD2Ev,"axG",%progbits,_ZN5daisy8DaisyPodD5Ev,comdat
  33              		.align	1
  34              		.p2align 2,,3
  35              		.weak	_ZN5daisy8DaisyPodD2Ev
  36              		.syntax unified
  37              		.thumb
  38              		.thumb_func
  39              		.fpu fpv5-d16
  41              	_ZN5daisy8DaisyPodD2Ev:
  42              		@ args = 0, pretend = 0, frame = 0
  43              		@ frame_needed = 0, uses_anonymous_args = 0
  44              		@ link register save eliminated.
  45 0000 7047     		bx	lr
  47              		.weak	_ZN5daisy8DaisyPodD1Ev
  48              		.thumb_set _ZN5daisy8DaisyPodD1Ev,_ZN5daisy8DaisyPodD2Ev
  49 0002 00BF     		.section	.text._ZN7daisysp10OscillatorD2Ev,"axG",%progbits,_ZN7daisysp10OscillatorD5Ev,comdat
  50              		.align	1
  51              		.p2align 2,,3
  52              		.weak	_ZN7daisysp10OscillatorD2Ev
  53              		.syntax unified
  54              		.thumb
  55              		.thumb_func
  56              		.fpu fpv5-d16
  58              	_ZN7daisysp10OscillatorD2Ev:
  59              		@ args = 0, pretend = 0, frame = 0
  60              		@ frame_needed = 0, uses_anonymous_args = 0
  61              		@ link register save eliminated.
  62 0000 7047     		bx	lr
ARM GAS  C:\Users\geoff\AppData\Local\Temp\cczkF2yQ.s 			page 2


  64              		.weak	_ZN7daisysp10OscillatorD1Ev
  65              		.thumb_set _ZN7daisysp10OscillatorD1Ev,_ZN7daisysp10OscillatorD2Ev
  66 0002 00BF     		.section	.text._ZN8PrintOut11UsbCallbackEPhPm,"ax",%progbits
  67              		.align	1
  68              		.p2align 2,,3
  69              		.global	_ZN8PrintOut11UsbCallbackEPhPm
  70              		.syntax unified
  71              		.thumb
  72              		.thumb_func
  73              		.fpu fpv5-d16
  75              	_ZN8PrintOut11UsbCallbackEPhPm:
  76              		@ args = 0, pretend = 0, frame = 0
  77              		@ frame_needed = 0, uses_anonymous_args = 0
  78              		@ link register save eliminated.
  79 0000 0B68     		ldr	r3, [r1]
  80 0002 73B1     		cbz	r3, .L13
  81 0004 421E     		subs	r2, r0, #1
  82 0006 30B4     		push	{r4, r5}
  83 0008 064C     		ldr	r4, .L16
  84              	.L7:
  85 000a 1346     		mov	r3, r2
  86 000c 12F8015F 		ldrb	r5, [r2, #1]!	@ zero_extendqisi2
  87 0010 0233     		adds	r3, r3, #2
  88 0012 04F8015B 		strb	r5, [r4], #1
  89 0016 0D68     		ldr	r5, [r1]
  90 0018 1B1A     		subs	r3, r3, r0
  91 001a 9D42     		cmp	r5, r3
  92 001c F5D8     		bhi	.L7
  93 001e 30BC     		pop	{r4, r5}
  94 0020 7047     		bx	lr
  95              	.L13:
  96 0022 7047     		bx	lr
  97              	.L17:
  98              		.align	2
  99              	.L16:
 100 0024 00000000 		.word	.LANCHOR0
 102              		.section	.text._ZN8PrintOut7PrinterD2Ev,"axG",%progbits,_ZN8PrintOut7PrinterD5Ev,comdat
 103              		.align	1
 104              		.p2align 2,,3
 105              		.weak	_ZN8PrintOut7PrinterD2Ev
 106              		.syntax unified
 107              		.thumb
 108              		.thumb_func
 109              		.fpu fpv5-d16
 111              	_ZN8PrintOut7PrinterD2Ev:
 112              		@ args = 0, pretend = 0, frame = 0
 113              		@ frame_needed = 0, uses_anonymous_args = 0
 114              		@ link register save eliminated.
 115 0000 7047     		bx	lr
 117              		.weak	_ZN8PrintOut7PrinterD1Ev
 118              		.thumb_set _ZN8PrintOut7PrinterD1Ev,_ZN8PrintOut7PrinterD2Ev
 119 0002 00BF     		.section	.text._ZN8PrintOut7Printer3outEPKcz,"axG",%progbits,_ZN8PrintOut7Printer3outEPKcz,comdat
 120              		.align	1
 121              		.p2align 2,,3
 122              		.weak	_ZN8PrintOut7Printer3outEPKcz
 123              		.syntax unified
 124              		.thumb
ARM GAS  C:\Users\geoff\AppData\Local\Temp\cczkF2yQ.s 			page 3


 125              		.thumb_func
 126              		.fpu fpv5-d16
 128              	_ZN8PrintOut7Printer3outEPKcz:
 129              		@ args = 4, pretend = 12, frame = 8
 130              		@ frame_needed = 0, uses_anonymous_args = 1
 131 0000 0EB4     		push	{r1, r2, r3}
 132 0002 70B5     		push	{r4, r5, r6, lr}
 133 0004 83B0     		sub	sp, sp, #12
 134 0006 00F17005 		add	r5, r0, #112
 135 000a 4FF40072 		mov	r2, #512
 136 000e 0021     		movs	r1, #0
 137 0010 079E     		ldr	r6, [sp, #28]
 138 0012 0446     		mov	r4, r0
 139 0014 2846     		mov	r0, r5
 140 0016 FFF7FEFF 		bl	memset
 141 001a 3046     		mov	r0, r6
 142 001c FFF7FEFF 		bl	strlen
 143 0020 0230     		adds	r0, r0, #2
 144 0022 B0F5007F 		cmp	r0, #512
 145 0026 04D9     		bls	.L22
 146 0028 03B0     		add	sp, sp, #12
 147              		@ sp needed
 148 002a BDE87040 		pop	{r4, r5, r6, lr}
 149 002e 03B0     		add	sp, sp, #12
 150 0030 7047     		bx	lr
 151              	.L22:
 152 0032 08AA     		add	r2, sp, #32
 153 0034 3146     		mov	r1, r6
 154 0036 2846     		mov	r0, r5
 155 0038 0192     		str	r2, [sp, #4]
 156 003a FFF7FEFF 		bl	vsprintf
 157 003e 2846     		mov	r0, r5
 158 0040 FFF7FEFF 		bl	strlen
 159 0044 2946     		mov	r1, r5
 160 0046 0246     		mov	r2, r0
 161 0048 04F2D220 		addw	r0, r4, #722
 162 004c FFF7FEFF 		bl	_ZN5daisy9UsbHandle16TransmitInternalEPhj
 163 0050 03B0     		add	sp, sp, #12
 164              		@ sp needed
 165 0052 BDE87040 		pop	{r4, r5, r6, lr}
 166 0056 03B0     		add	sp, sp, #12
 167 0058 7047     		bx	lr
 169 005a 00BF     		.section	.rodata.main.str1.4,"aMS",%progbits,1
 170              		.align	2
 171              	.LC0:
 172 0000 57544621 		.ascii	"WTF!!!! %d\015\012\000"
 172      21212120 
 172      25640D0A 
 172      00
 173              		.section	.text.startup.main,"ax",%progbits
 174              		.align	1
 175              		.p2align 2,,3
 176              		.global	main
 177              		.syntax unified
 178              		.thumb
 179              		.thumb_func
 180              		.fpu fpv5-d16
ARM GAS  C:\Users\geoff\AppData\Local\Temp\cczkF2yQ.s 			page 4


 182              	main:
 183              		@ Volatile: function does not return.
 184              		@ args = 0, pretend = 0, frame = 0
 185              		@ frame_needed = 0, uses_anonymous_args = 0
 186 0000 08B5     		push	{r3, lr}
 187 0002 0F48     		ldr	r0, .L26
 188 0004 FFF7FEFF 		bl	_ZN5daisy9DaisySeed9ConfigureEv
 189 0008 0D48     		ldr	r0, .L26
 190 000a FFF7FEFF 		bl	_ZN5daisy9DaisySeed4InitEv
 191 000e 0021     		movs	r1, #0
 192 0010 0C48     		ldr	r0, .L26+4
 193 0012 FFF7FEFF 		bl	_ZN5daisy9UsbHandle4InitENS0_9UsbPeriphE
 194 0016 0C49     		ldr	r1, .L26+8
 195 0018 0A48     		ldr	r0, .L26+4
 196 001a FFF7FEFF 		bl	_ZN5daisy9UsbHandle18SetReceiveCallbackEPFvPhPmE
 197 001e 0121     		movs	r1, #1
 198 0020 0748     		ldr	r0, .L26
 199 0022 0A4C     		ldr	r4, .L26+12
 200 0024 FFF7FEFF 		bl	_ZN5daisy9DaisySeed6SetLedEb
 201              	.L24:
 202 0028 0822     		movs	r2, #8
 203 002a 0949     		ldr	r1, .L26+16
 204 002c 0948     		ldr	r0, .L26+20
 205 002e FFF7FEFF 		bl	_ZN8PrintOut7Printer3outEPKcz
 206 0032 2368     		ldr	r3, [r4]
 207 0034 FA20     		movs	r0, #250
 208 0036 0133     		adds	r3, r3, #1
 209 0038 2360     		str	r3, [r4]
 210 003a FFF7FEFF 		bl	dsy_tim_delay_ms
 211 003e F3E7     		b	.L24
 212              	.L27:
 213              		.align	2
 214              	.L26:
 215 0040 00000000 		.word	.LANCHOR1
 216 0044 62000000 		.word	.LANCHOR1+98
 217 0048 00000000 		.word	_ZN8PrintOut11UsbCallbackEPhPm
 218 004c 00000000 		.word	.LANCHOR3
 219 0050 00000000 		.word	.LC0
 220 0054 00000000 		.word	.LANCHOR2
 222              		.section	.text.startup._GLOBAL__sub_I_seed,"ax",%progbits
 223              		.align	1
 224              		.p2align 2,,3
 225              		.syntax unified
 226              		.thumb
 227              		.thumb_func
 228              		.fpu fpv5-d16
 230              	_GLOBAL__sub_I_seed:
 231              		@ args = 0, pretend = 0, frame = 0
 232              		@ frame_needed = 0, uses_anonymous_args = 0
 233 0000 10B5     		push	{r4, lr}
 234 0002 0F4A     		ldr	r2, .L30
 235 0004 0F4C     		ldr	r4, .L30+4
 236 0006 1049     		ldr	r1, .L30+8
 237 0008 1048     		ldr	r0, .L30+12
 238 000a FFF7FEFF 		bl	__aeabi_atexit
 239 000e 0C4A     		ldr	r2, .L30
 240 0010 0F49     		ldr	r1, .L30+16
ARM GAS  C:\Users\geoff\AppData\Local\Temp\cczkF2yQ.s 			page 5


 241 0012 1048     		ldr	r0, .L30+20
 242 0014 FFF7FEFF 		bl	__aeabi_atexit
 243 0018 2146     		mov	r1, r4
 244 001a 094A     		ldr	r2, .L30
 245 001c 0E48     		ldr	r0, .L30+24
 246 001e FFF7FEFF 		bl	__aeabi_atexit
 247 0022 2146     		mov	r1, r4
 248 0024 064A     		ldr	r2, .L30
 249 0026 0D48     		ldr	r0, .L30+28
 250 0028 FFF7FEFF 		bl	__aeabi_atexit
 251 002c 0C48     		ldr	r0, .L30+32
 252 002e 0123     		movs	r3, #1
 253 0030 034A     		ldr	r2, .L30
 254 0032 0C49     		ldr	r1, .L30+36
 255 0034 C366     		str	r3, [r0, #108]
 256 0036 BDE81040 		pop	{r4, lr}
 257 003a FFF7FEBF 		b	__aeabi_atexit
 258              	.L31:
 259 003e 00BF     		.align	2
 260              	.L30:
 261 0040 00000000 		.word	__dso_handle
 262 0044 00000000 		.word	_ZN7daisysp10OscillatorD1Ev
 263 0048 00000000 		.word	_ZN5daisy9DaisySeedD1Ev
 264 004c 00000000 		.word	.LANCHOR1
 265 0050 00000000 		.word	_ZN5daisy8DaisyPodD1Ev
 266 0054 00000000 		.word	.LANCHOR4
 267 0058 00000000 		.word	.LANCHOR5
 268 005c 00000000 		.word	.LANCHOR6
 269 0060 00000000 		.word	.LANCHOR2
 270 0064 00000000 		.word	_ZN8PrintOut7PrinterD1Ev
 272              		.section	.init_array,"aw",%init_array
 273              		.align	2
 274 0000 00000000 		.word	_GLOBAL__sub_I_seed(target1)
 275              		.global	led_state
 276              		.global	printer
 277              		.global	_ZN8PrintOut7sumbuffE
 278              		.global	osc2
 279              		.global	osc1
 280              		.global	pod
 281              		.global	seed
 282              		.section	.bss._ZL7counter,"aw",%nobits
 283              		.align	2
 284              		.set	.LANCHOR3,. + 0
 287              	_ZL7counter:
 288 0000 00000000 		.space	4
 289              		.section	.bss._ZN8PrintOut7sumbuffE,"aw",%nobits
 290              		.align	2
 291              		.set	.LANCHOR0,. + 0
 294              	_ZN8PrintOut7sumbuffE:
 295 0000 00000000 		.space	1024
 295      00000000 
 295      00000000 
 295      00000000 
 295      00000000 
 296              		.section	.bss.led_state,"aw",%nobits
 299              	led_state:
 300 0000 00       		.space	1
ARM GAS  C:\Users\geoff\AppData\Local\Temp\cczkF2yQ.s 			page 6


 301              		.section	.bss.osc1,"aw",%nobits
 302              		.align	2
 303              		.set	.LANCHOR5,. + 0
 306              	osc1:
 307 0000 00000000 		.space	36
 307      00000000 
 307      00000000 
 307      00000000 
 307      00000000 
 308              		.section	.bss.osc2,"aw",%nobits
 309              		.align	2
 310              		.set	.LANCHOR6,. + 0
 313              	osc2:
 314 0000 00000000 		.space	36
 314      00000000 
 314      00000000 
 314      00000000 
 314      00000000 
 315              		.section	.bss.pod,"aw",%nobits
 316              		.align	2
 317              		.set	.LANCHOR4,. + 0
 320              	pod:
 321 0000 00000000 		.space	424
 321      00000000 
 321      00000000 
 321      00000000 
 321      00000000 
 322              		.section	.bss.printer,"aw",%nobits
 323              		.align	2
 324              		.set	.LANCHOR2,. + 0
 327              	printer:
 328 0000 00000000 		.space	732
 328      00000000 
 328      00000000 
 328      00000000 
 328      00000000 
 329              		.section	.bss.seed,"aw",%nobits
 330              		.align	2
 331              		.set	.LANCHOR1,. + 0
 334              	seed:
 335 0000 00000000 		.space	108
 335      00000000 
 335      00000000 
 335      00000000 
 335      00000000 
 336              		.hidden	__dso_handle
 337              		.ident	"GCC: (GNU Arm Embedded Toolchain 9-2020-q2-update) 9.3.1 20200408 (release)"
ARM GAS  C:\Users\geoff\AppData\Local\Temp\cczkF2yQ.s 			page 7


DEFINED SYMBOLS
                            *ABS*:00000000 musicSynth.cpp
C:\Users\geoff\AppData\Local\Temp\cczkF2yQ.s:15     .text._ZN5daisy9DaisySeedD2Ev:00000000 $t
C:\Users\geoff\AppData\Local\Temp\cczkF2yQ.s:24     .text._ZN5daisy9DaisySeedD2Ev:00000000 _ZN5daisy9DaisySeedD2Ev
C:\Users\geoff\AppData\Local\Temp\cczkF2yQ.s:24     .text._ZN5daisy9DaisySeedD2Ev:00000000 _ZN5daisy9DaisySeedD1Ev
C:\Users\geoff\AppData\Local\Temp\cczkF2yQ.s:33     .text._ZN5daisy8DaisyPodD2Ev:00000000 $t
C:\Users\geoff\AppData\Local\Temp\cczkF2yQ.s:41     .text._ZN5daisy8DaisyPodD2Ev:00000000 _ZN5daisy8DaisyPodD2Ev
C:\Users\geoff\AppData\Local\Temp\cczkF2yQ.s:41     .text._ZN5daisy8DaisyPodD2Ev:00000000 _ZN5daisy8DaisyPodD1Ev
C:\Users\geoff\AppData\Local\Temp\cczkF2yQ.s:50     .text._ZN7daisysp10OscillatorD2Ev:00000000 $t
C:\Users\geoff\AppData\Local\Temp\cczkF2yQ.s:58     .text._ZN7daisysp10OscillatorD2Ev:00000000 _ZN7daisysp10OscillatorD2Ev
C:\Users\geoff\AppData\Local\Temp\cczkF2yQ.s:58     .text._ZN7daisysp10OscillatorD2Ev:00000000 _ZN7daisysp10OscillatorD1Ev
C:\Users\geoff\AppData\Local\Temp\cczkF2yQ.s:67     .text._ZN8PrintOut11UsbCallbackEPhPm:00000000 $t
C:\Users\geoff\AppData\Local\Temp\cczkF2yQ.s:75     .text._ZN8PrintOut11UsbCallbackEPhPm:00000000 _ZN8PrintOut11UsbCallbackEPhPm
C:\Users\geoff\AppData\Local\Temp\cczkF2yQ.s:100    .text._ZN8PrintOut11UsbCallbackEPhPm:00000024 $d
C:\Users\geoff\AppData\Local\Temp\cczkF2yQ.s:103    .text._ZN8PrintOut7PrinterD2Ev:00000000 $t
C:\Users\geoff\AppData\Local\Temp\cczkF2yQ.s:111    .text._ZN8PrintOut7PrinterD2Ev:00000000 _ZN8PrintOut7PrinterD2Ev
C:\Users\geoff\AppData\Local\Temp\cczkF2yQ.s:111    .text._ZN8PrintOut7PrinterD2Ev:00000000 _ZN8PrintOut7PrinterD1Ev
C:\Users\geoff\AppData\Local\Temp\cczkF2yQ.s:120    .text._ZN8PrintOut7Printer3outEPKcz:00000000 $t
C:\Users\geoff\AppData\Local\Temp\cczkF2yQ.s:128    .text._ZN8PrintOut7Printer3outEPKcz:00000000 _ZN8PrintOut7Printer3outEPKcz
C:\Users\geoff\AppData\Local\Temp\cczkF2yQ.s:170    .rodata.main.str1.4:00000000 $d
C:\Users\geoff\AppData\Local\Temp\cczkF2yQ.s:174    .text.startup.main:00000000 $t
C:\Users\geoff\AppData\Local\Temp\cczkF2yQ.s:182    .text.startup.main:00000000 main
C:\Users\geoff\AppData\Local\Temp\cczkF2yQ.s:215    .text.startup.main:00000040 $d
C:\Users\geoff\AppData\Local\Temp\cczkF2yQ.s:223    .text.startup._GLOBAL__sub_I_seed:00000000 $t
C:\Users\geoff\AppData\Local\Temp\cczkF2yQ.s:230    .text.startup._GLOBAL__sub_I_seed:00000000 _GLOBAL__sub_I_seed
C:\Users\geoff\AppData\Local\Temp\cczkF2yQ.s:261    .text.startup._GLOBAL__sub_I_seed:00000040 $d
C:\Users\geoff\AppData\Local\Temp\cczkF2yQ.s:273    .init_array:00000000 $d
C:\Users\geoff\AppData\Local\Temp\cczkF2yQ.s:299    .bss.led_state:00000000 led_state
C:\Users\geoff\AppData\Local\Temp\cczkF2yQ.s:327    .bss.printer:00000000 printer
C:\Users\geoff\AppData\Local\Temp\cczkF2yQ.s:294    .bss._ZN8PrintOut7sumbuffE:00000000 _ZN8PrintOut7sumbuffE
C:\Users\geoff\AppData\Local\Temp\cczkF2yQ.s:313    .bss.osc2:00000000 osc2
C:\Users\geoff\AppData\Local\Temp\cczkF2yQ.s:306    .bss.osc1:00000000 osc1
C:\Users\geoff\AppData\Local\Temp\cczkF2yQ.s:320    .bss.pod:00000000 pod
C:\Users\geoff\AppData\Local\Temp\cczkF2yQ.s:334    .bss.seed:00000000 seed
C:\Users\geoff\AppData\Local\Temp\cczkF2yQ.s:283    .bss._ZL7counter:00000000 $d
C:\Users\geoff\AppData\Local\Temp\cczkF2yQ.s:287    .bss._ZL7counter:00000000 _ZL7counter
C:\Users\geoff\AppData\Local\Temp\cczkF2yQ.s:290    .bss._ZN8PrintOut7sumbuffE:00000000 $d
C:\Users\geoff\AppData\Local\Temp\cczkF2yQ.s:300    .bss.led_state:00000000 $d
C:\Users\geoff\AppData\Local\Temp\cczkF2yQ.s:302    .bss.osc1:00000000 $d
C:\Users\geoff\AppData\Local\Temp\cczkF2yQ.s:309    .bss.osc2:00000000 $d
C:\Users\geoff\AppData\Local\Temp\cczkF2yQ.s:316    .bss.pod:00000000 $d
C:\Users\geoff\AppData\Local\Temp\cczkF2yQ.s:323    .bss.printer:00000000 $d
C:\Users\geoff\AppData\Local\Temp\cczkF2yQ.s:330    .bss.seed:00000000 $d
                           .group:00000000 _ZN5daisy9DaisySeedD5Ev
                           .group:00000000 _ZN5daisy8DaisyPodD5Ev
                           .group:00000000 _ZN7daisysp10OscillatorD5Ev
                           .group:00000000 _ZN8PrintOut7PrinterD5Ev

UNDEFINED SYMBOLS
memset
strlen
vsprintf
_ZN5daisy9UsbHandle16TransmitInternalEPhj
_ZN5daisy9DaisySeed9ConfigureEv
_ZN5daisy9DaisySeed4InitEv
_ZN5daisy9UsbHandle4InitENS0_9UsbPeriphE
_ZN5daisy9UsbHandle18SetReceiveCallbackEPFvPhPmE
ARM GAS  C:\Users\geoff\AppData\Local\Temp\cczkF2yQ.s 			page 8


_ZN5daisy9DaisySeed6SetLedEb
dsy_tim_delay_ms
__aeabi_atexit
__dso_handle
